target datalayout = "e-m:e-p270:32:32-p271:32:32-p272:64:64-i64:64-i128:128-f80:128-n8:16:32:64-S128"
target triple = "x86_64-pc-linux-gnu"

%struct.AddressSpace = type { %struct.rcu_head, ptr, ptr, ptr, i32, i32, ptr, %union.anon, %union.anon.0, i64, i64, %struct.QemuMutex, %struct.anon }
%struct.rcu_head = type { ptr, ptr }
%union.anon = type { %struct.QTailQLink }
%struct.QTailQLink = type { ptr, ptr }
%union.anon.0 = type { %struct.QTailQLink }
%struct.QemuMutex = type { %union.pthread_mutex_t, i8 }
%union.pthread_mutex_t = type { %struct.__pthread_mutex_s }
%struct.__pthread_mutex_s = type { i32, i32, i32, i32, i32, i16, i16, %struct.__pthread_internal_list }
%struct.__pthread_internal_list = type { ptr, ptr }
%struct.anon = type { ptr }
%struct.VirtIOPCIProxy = type { %struct.PCIDevice, %struct.MemoryRegion, %union.anon.7, %struct.MemoryRegion, %struct.MemoryRegion, %struct.AddressSpace, %struct.AddressSpace, i32, i32, i32, i32, i32, i32, i8, i8, i32, i16, i32, i32, i32, i32, [2 x i32], [1024 x %struct.VirtIOPCIQueue], ptr, i32, %struct.VirtioBusState }
%struct.PCIDevice = type { %struct.DeviceState, i8, i8, ptr, ptr, ptr, ptr, ptr, i32, %struct.PCIReqIDCache, [64 x i8], [7 x %struct.PCIIORegion], %struct.AddressSpace, %struct.MemoryRegion, %struct.MemoryRegion, ptr, ptr, [3 x ptr], i8, i8, i32, i8, i32, ptr, ptr, ptr, ptr, ptr, ptr, %struct.MemoryRegion, %struct.MemoryRegion, %struct.MemoryRegion, ptr, i8, i32, i8, %struct.PCIExpressDevice, ptr, ptr, i32, i8, %struct.MemoryRegion, i32, ptr, ptr, ptr, ptr, i16, %struct.DOECap, ptr, i32, i32 }
%struct.DeviceState = type { %struct.Object, ptr, ptr, i8, i8, i64, i32, i8, ptr, %struct.NamedGPIOListHead, %struct.NamedClockListHead, %struct.BusStateHead, i32, i32, i32, %struct.ResettableState, ptr, %struct.MemReentrancyGuard }
%struct.Object = type { ptr, ptr, ptr, i32, ptr }
%struct.NamedGPIOListHead = type { ptr }
%struct.NamedClockListHead = type { ptr }
%struct.BusStateHead = type { ptr }
%struct.ResettableState = type { i32, i8, i8 }
%struct.MemReentrancyGuard = type { i8 }
%struct.PCIReqIDCache = type { ptr, i32 }
%struct.PCIIORegion = type { i64, i64, i8, ptr, ptr }
%struct.PCIExpressDevice = type { i8, i8, i8, i16, %struct.PCIEAERLog, i16, i16, i16, %struct.PCIESriovPF, %struct.PCIESriovVF }
%struct.PCIEAERLog = type { i16, i16, ptr }
%struct.PCIESriovPF = type { i16, [7 x i8], ptr, ptr }
%struct.PCIESriovVF = type { ptr, i16 }
%struct.DOECap = type { ptr, i16, %struct.anon.4, %struct.anon.5, %struct.anon.6, ptr, ptr, i32, i32, i32, ptr, i16, i32 }
%struct.anon.4 = type { i8, i16 }
%struct.anon.5 = type { i8, i8, i8 }
%struct.anon.6 = type { i8, i8, i8, i8 }
%union.anon.7 = type { %struct.anon.8 }
%struct.anon.8 = type { %struct.VirtIOPCIRegion, %struct.VirtIOPCIRegion, %struct.VirtIOPCIRegion, %struct.VirtIOPCIRegion, %struct.VirtIOPCIRegion }
%struct.VirtIOPCIRegion = type { %struct.MemoryRegion, i32, i32, i32 }
%struct.MemoryRegion = type { %struct.Object, i8, i8, i8, i8, i8, i8, i8, i8, i8, i8, ptr, ptr, ptr, ptr, ptr, ptr, i32, i128, i64, ptr, i64, i8, i8, i8, i8, ptr, i64, i32, %union.anon.1, %union.anon.2, %union.anon.3, ptr, i32, ptr, ptr, i8 }
%union.anon.1 = type { %struct.QTailQLink }
%union.anon.2 = type { %struct.QTailQLink }
%union.anon.3 = type { %struct.QTailQLink }
%struct.VirtIOPCIQueue = type { i16, i8, i8, [2 x i32], [2 x i32], [2 x i32] }
%struct.VirtioBusState = type { %struct.BusState, i8, i32 }
%struct.BusState = type { %struct.Object, ptr, ptr, ptr, i32, i8, i8, i32, %union.BusChildHead, %struct.BusStateEntry, %struct.ResettableState }
%union.BusChildHead = type { %struct.QTailQLink }
%struct.BusStateEntry = type { ptr, ptr }

@.str = private unnamed_addr constant [11 x i8] c"virtio-pci\00", align 1
@.str.10 = private unnamed_addr constant [7 x i8] c"device\00", align 1
@.str.11 = private unnamed_addr constant [101 x i8] c"/home/dtcxzyw/WorkSpace/Projects/compilers/llvm-opt-benchmark/bench/qemu/qemu/include/hw/qdev-core.h\00", align 1
@.str.15 = private unnamed_addr constant [109 x i8] c"/home/dtcxzyw/WorkSpace/Projects/compilers/llvm-opt-benchmark/bench/qemu/qemu/include/hw/virtio/virtio-pci.h\00", align 1
@__func__.VIRTIO_PCI = private unnamed_addr constant [11 x i8] c"VIRTIO_PCI\00", align 1
@.str.17 = private unnamed_addr constant [11 x i8] c"virtio-bus\00", align 1
@.str.20 = private unnamed_addr constant [109 x i8] c"/home/dtcxzyw/WorkSpace/Projects/compilers/llvm-opt-benchmark/bench/qemu/qemu/include/hw/virtio/virtio-bus.h\00", align 1
@__func__.VIRTIO_BUS = private unnamed_addr constant [11 x i8] c"VIRTIO_BUS\00", align 1
@__func__.DEVICE = private unnamed_addr constant [7 x i8] c"DEVICE\00", align 1
@.str.70 = private unnamed_addr constant [11 x i8] c"pci-device\00", align 1
@.str.72 = private unnamed_addr constant [106 x i8] c"/home/dtcxzyw/WorkSpace/Projects/compilers/llvm-opt-benchmark/bench/qemu/qemu/include/hw/pci/pci_device.h\00", align 1
@__func__.PCI_DEVICE = private unnamed_addr constant [11 x i8] c"PCI_DEVICE\00", align 1

; Function Attrs: inlinehint nounwind sspstrong uwtable
define internal void @stw_he_p(ptr noundef %0, i16 noundef zeroext %1) #4 {
  %3 = alloca ptr, align 8
  %4 = alloca i16, align 2
  store ptr %0, ptr %3, align 8
  store i16 %1, ptr %4, align 2
  %5 = load ptr, ptr %3, align 8
  call void @llvm.memcpy.p0.p0.i64(ptr align 1 %5, ptr align 2 %4, i64 2, i1 false)
  ret void
}

; Function Attrs: inlinehint nounwind sspstrong uwtable
define internal i32 @lduw_he_p(ptr noundef %0) #4 {
  %2 = alloca ptr, align 8
  %3 = alloca i16, align 2
  store ptr %0, ptr %2, align 8
  call void @llvm.lifetime.start.p0(i64 2, ptr %3) #13
  store i16 0, ptr %3, align 2, !annotation !4
  %4 = load ptr, ptr %2, align 8
  call void @llvm.memcpy.p0.p0.i64(ptr align 2 %3, ptr align 1 %4, i64 2, i1 false)
  %5 = load i16, ptr %3, align 2
  %6 = zext i16 %5 to i32
  call void @llvm.lifetime.end.p0(i64 2, ptr %3) #13
  ret i32 %6
}

; Function Attrs: inlinehint nounwind sspstrong uwtable
define internal void @stw_le_p(ptr noundef %0, i16 noundef zeroext %1) #4 {
  %3 = alloca ptr, align 8
  %4 = alloca i16, align 2
  store ptr %0, ptr %3, align 8
  store i16 %1, ptr %4, align 2
  %5 = load ptr, ptr %3, align 8
  %6 = load i16, ptr %4, align 2
  call void @stw_he_p(ptr noundef %5, i16 noundef zeroext %6)
  ret void
}

; Function Attrs: inlinehint nounwind sspstrong uwtable
define internal i32 @lduw_le_p(ptr noundef %0) #4 {
  %2 = alloca ptr, align 8
  store ptr %0, ptr %2, align 8
  %3 = load ptr, ptr %2, align 8
  %4 = call i32 @lduw_he_p(ptr noundef %3)
  %5 = trunc i32 %4 to i16
  %6 = zext i16 %5 to i32
  ret i32 %6
}

; Function Attrs: inlinehint nounwind sspstrong uwtable
define internal void @pci_set_word(ptr noundef %0, i16 noundef zeroext %1) #4 {
  %3 = alloca ptr, align 8
  %4 = alloca i16, align 2
  store ptr %0, ptr %3, align 8
  store i16 %1, ptr %4, align 2
  %5 = load ptr, ptr %3, align 8
  %6 = load i16, ptr %4, align 2
  call void @stw_le_p(ptr noundef %5, i16 noundef zeroext %6)
  ret void
}

; Function Attrs: inlinehint nounwind sspstrong uwtable
define internal ptr @VIRTIO_BUS(ptr noundef %0) #4 {
  %2 = alloca ptr, align 8
  store ptr %0, ptr %2, align 8
  %3 = load ptr, ptr %2, align 8
  %4 = call ptr @object_dynamic_cast_assert(ptr noundef %3, ptr noundef @.str.17, ptr noundef @.str.20, i32 noundef 36, ptr noundef @__func__.VIRTIO_BUS)
  ret ptr %4
}

; Function Attrs: inlinehint nounwind sspstrong uwtable
define internal zeroext i16 @pci_get_word(ptr noundef %0) #4 {
  %2 = alloca ptr, align 8
  store ptr %0, ptr %2, align 8
  %3 = load ptr, ptr %2, align 8
  %4 = call i32 @lduw_le_p(ptr noundef %3)
  %5 = trunc i32 %4 to i16
  ret i16 %5
}

; Function Attrs: inlinehint nounwind sspstrong uwtable
define internal zeroext i16 @pci_word_test_and_clear_mask(ptr noundef %0, i16 noundef zeroext %1) #4 {
  %3 = alloca ptr, align 8
  %4 = alloca i16, align 2
  %5 = alloca i16, align 2
  store ptr %0, ptr %3, align 8
  store i16 %1, ptr %4, align 2
  call void @llvm.lifetime.start.p0(i64 2, ptr %5) #13
  %6 = load ptr, ptr %3, align 8
  %7 = call zeroext i16 @pci_get_word(ptr noundef %6)
  store i16 %7, ptr %5, align 2
  %8 = load ptr, ptr %3, align 8
  %9 = load i16, ptr %5, align 2
  %10 = zext i16 %9 to i32
  %11 = load i16, ptr %4, align 2
  %12 = zext i16 %11 to i32
  %13 = xor i32 %12, -1
  %14 = and i32 %10, %13
  %15 = trunc i32 %14 to i16
  call void @pci_set_word(ptr noundef %8, i16 noundef zeroext %15)
  %16 = load i16, ptr %5, align 2
  %17 = zext i16 %16 to i32
  %18 = load i16, ptr %4, align 2
  %19 = zext i16 %18 to i32
  %20 = and i32 %17, %19
  %21 = trunc i32 %20 to i16
  call void @llvm.lifetime.end.p0(i64 2, ptr %5) #13
  ret i16 %21
}

; Function Attrs: inlinehint nounwind sspstrong uwtable
define internal ptr @VIRTIO_PCI(ptr noundef %0) #4 {
  %2 = alloca ptr, align 8
  store ptr %0, ptr %2, align 8
  %3 = load ptr, ptr %2, align 8
  %4 = call ptr @object_dynamic_cast_assert(ptr noundef %3, ptr noundef @.str, ptr noundef @.str.15, i32 noundef 107, ptr noundef @__func__.VIRTIO_PCI)
  ret ptr %4
}

; Function Attrs: inlinehint nounwind sspstrong uwtable
define internal i32 @pci_is_express(ptr noundef %0) #4 {
  %2 = alloca ptr, align 8
  store ptr %0, ptr %2, align 8
  %3 = load ptr, ptr %2, align 8
  %4 = getelementptr inbounds nuw %struct.PCIDevice, ptr %3, i32 0, i32 20
  %5 = load i32, ptr %4, align 4
  %6 = and i32 %5, 4
  ret i32 %6
}

; Function Attrs: nounwind sspstrong uwtable
define internal void @virtio_pci_reset(ptr noundef %0) #0 {
  %2 = alloca ptr, align 8
  %3 = alloca ptr, align 8
  %4 = alloca ptr, align 8
  %5 = alloca i32, align 4
  store ptr %0, ptr %2, align 8
  call void @llvm.lifetime.start.p0(i64 8, ptr %3) #13
  %6 = load ptr, ptr %2, align 8
  %7 = call ptr @VIRTIO_PCI(ptr noundef %6)
  store ptr %7, ptr %3, align 8
  call void @llvm.lifetime.start.p0(i64 8, ptr %4) #13
  %8 = load ptr, ptr %3, align 8
  %9 = getelementptr inbounds nuw %struct.VirtIOPCIProxy, ptr %8, i32 0, i32 25
  %10 = call ptr @VIRTIO_BUS(ptr noundef %9)
  store ptr %10, ptr %4, align 8
  call void @llvm.lifetime.start.p0(i64 4, ptr %5) #13
  store i32 0, ptr %5, align 4, !annotation !4
  %11 = load ptr, ptr %4, align 8
  call void @virtio_bus_reset(ptr noundef %11)
  %12 = load ptr, ptr %3, align 8
  %13 = getelementptr inbounds nuw %struct.VirtIOPCIProxy, ptr %12, i32 0, i32 0
  call void @msix_unuse_all_vectors(ptr noundef %13)
  store i32 0, ptr %5, align 4
  br label %14

14:                                               ; preds = %78, %1
  %15 = load i32, ptr %5, align 4
  %16 = icmp slt i32 %15, 1024
  br i1 %16, label %17, label %81

17:                                               ; preds = %14
  %18 = load ptr, ptr %3, align 8
  %19 = getelementptr inbounds nuw %struct.VirtIOPCIProxy, ptr %18, i32 0, i32 22
  %20 = load i32, ptr %5, align 4
  %21 = sext i32 %20 to i64
  %22 = getelementptr inbounds [1024 x %struct.VirtIOPCIQueue], ptr %19, i64 0, i64 %21
  %23 = getelementptr inbounds nuw %struct.VirtIOPCIQueue, ptr %22, i32 0, i32 1
  store i8 0, ptr %23, align 2
  %24 = load ptr, ptr %3, align 8
  %25 = getelementptr inbounds nuw %struct.VirtIOPCIProxy, ptr %24, i32 0, i32 22
  %26 = load i32, ptr %5, align 4
  %27 = sext i32 %26 to i64
  %28 = getelementptr inbounds [1024 x %struct.VirtIOPCIQueue], ptr %25, i64 0, i64 %27
  %29 = getelementptr inbounds nuw %struct.VirtIOPCIQueue, ptr %28, i32 0, i32 2
  store i8 0, ptr %29, align 1
  %30 = load ptr, ptr %3, align 8
  %31 = getelementptr inbounds nuw %struct.VirtIOPCIProxy, ptr %30, i32 0, i32 22
  %32 = load i32, ptr %5, align 4
  %33 = sext i32 %32 to i64
  %34 = getelementptr inbounds [1024 x %struct.VirtIOPCIQueue], ptr %31, i64 0, i64 %33
  %35 = getelementptr inbounds nuw %struct.VirtIOPCIQueue, ptr %34, i32 0, i32 0
  store i16 0, ptr %35, align 4
  %36 = load ptr, ptr %3, align 8
  %37 = getelementptr inbounds nuw %struct.VirtIOPCIProxy, ptr %36, i32 0, i32 22
  %38 = load i32, ptr %5, align 4
  %39 = sext i32 %38 to i64
  %40 = getelementptr inbounds [1024 x %struct.VirtIOPCIQueue], ptr %37, i64 0, i64 %39
  %41 = getelementptr inbounds nuw %struct.VirtIOPCIQueue, ptr %40, i32 0, i32 3
  %42 = getelementptr inbounds [2 x i32], ptr %41, i64 0, i64 1
  store i32 0, ptr %42, align 4
  %43 = load ptr, ptr %3, align 8
  %44 = getelementptr inbounds nuw %struct.VirtIOPCIProxy, ptr %43, i32 0, i32 22
  %45 = load i32, ptr %5, align 4
  %46 = sext i32 %45 to i64
  %47 = getelementptr inbounds [1024 x %struct.VirtIOPCIQueue], ptr %44, i64 0, i64 %46
  %48 = getelementptr inbounds nuw %struct.VirtIOPCIQueue, ptr %47, i32 0, i32 3
  %49 = getelementptr inbounds [2 x i32], ptr %48, i64 0, i64 0
  store i32 0, ptr %49, align 4
  %50 = load ptr, ptr %3, align 8
  %51 = getelementptr inbounds nuw %struct.VirtIOPCIProxy, ptr %50, i32 0, i32 22
  %52 = load i32, ptr %5, align 4
  %53 = sext i32 %52 to i64
  %54 = getelementptr inbounds [1024 x %struct.VirtIOPCIQueue], ptr %51, i64 0, i64 %53
  %55 = getelementptr inbounds nuw %struct.VirtIOPCIQueue, ptr %54, i32 0, i32 4
  %56 = getelementptr inbounds [2 x i32], ptr %55, i64 0, i64 1
  store i32 0, ptr %56, align 4
  %57 = load ptr, ptr %3, align 8
  %58 = getelementptr inbounds nuw %struct.VirtIOPCIProxy, ptr %57, i32 0, i32 22
  %59 = load i32, ptr %5, align 4
  %60 = sext i32 %59 to i64
  %61 = getelementptr inbounds [1024 x %struct.VirtIOPCIQueue], ptr %58, i64 0, i64 %60
  %62 = getelementptr inbounds nuw %struct.VirtIOPCIQueue, ptr %61, i32 0, i32 4
  %63 = getelementptr inbounds [2 x i32], ptr %62, i64 0, i64 0
  store i32 0, ptr %63, align 4
  %64 = load ptr, ptr %3, align 8
  %65 = getelementptr inbounds nuw %struct.VirtIOPCIProxy, ptr %64, i32 0, i32 22
  %66 = load i32, ptr %5, align 4
  %67 = sext i32 %66 to i64
  %68 = getelementptr inbounds [1024 x %struct.VirtIOPCIQueue], ptr %65, i64 0, i64 %67
  %69 = getelementptr inbounds nuw %struct.VirtIOPCIQueue, ptr %68, i32 0, i32 5
  %70 = getelementptr inbounds [2 x i32], ptr %69, i64 0, i64 1
  store i32 0, ptr %70, align 4
  %71 = load ptr, ptr %3, align 8
  %72 = getelementptr inbounds nuw %struct.VirtIOPCIProxy, ptr %71, i32 0, i32 22
  %73 = load i32, ptr %5, align 4
  %74 = sext i32 %73 to i64
  %75 = getelementptr inbounds [1024 x %struct.VirtIOPCIQueue], ptr %72, i64 0, i64 %74
  %76 = getelementptr inbounds nuw %struct.VirtIOPCIQueue, ptr %75, i32 0, i32 5
  %77 = getelementptr inbounds [2 x i32], ptr %76, i64 0, i64 0
  store i32 0, ptr %77, align 4
  br label %78

78:                                               ; preds = %17
  %79 = load i32, ptr %5, align 4
  %80 = add i32 %79, 1
  store i32 %80, ptr %5, align 4
  br label %14, !llvm.loop !21

81:                                               ; preds = %14
  call void @llvm.lifetime.end.p0(i64 4, ptr %5) #13
  call void @llvm.lifetime.end.p0(i64 8, ptr %4) #13
  call void @llvm.lifetime.end.p0(i64 8, ptr %3) #13
  ret void
}

; Function Attrs: nounwind sspstrong uwtable
define internal zeroext i1 @virtio_pci_no_soft_reset(ptr noundef %0) #0 {
  %2 = alloca i1, align 1
  %3 = alloca ptr, align 8
  %4 = alloca i16, align 2
  %5 = alloca i32, align 4
  store ptr %0, ptr %3, align 8
  call void @llvm.lifetime.start.p0(i64 2, ptr %4) #13
  store i16 0, ptr %4, align 2, !annotation !4
  %6 = load ptr, ptr %3, align 8
  %7 = call i32 @pci_is_express(ptr noundef %6)
  %8 = icmp ne i32 %7, 0
  br i1 %8, label %9, label %15

9:                                                ; preds = %1
  %10 = load ptr, ptr %3, align 8
  %11 = getelementptr inbounds nuw %struct.PCIDevice, ptr %10, i32 0, i32 36
  %12 = getelementptr inbounds nuw %struct.PCIExpressDevice, ptr %11, i32 0, i32 1
  %13 = load i8, ptr %12, align 1
  %14 = icmp ne i8 %13, 0
  br i1 %14, label %16, label %15

15:                                               ; preds = %9, %1
  store i1 false, ptr %2, align 1
  store i32 1, ptr %5, align 4
  br label %40

16:                                               ; preds = %9
  %17 = load ptr, ptr %3, align 8
  %18 = getelementptr inbounds nuw %struct.PCIDevice, ptr %17, i32 0, i32 3
  %19 = load ptr, ptr %18, align 16
  %20 = load ptr, ptr %3, align 8
  %21 = getelementptr inbounds nuw %struct.PCIDevice, ptr %20, i32 0, i32 36
  %22 = getelementptr inbounds nuw %struct.PCIExpressDevice, ptr %21, i32 0, i32 1
  %23 = load i8, ptr %22, align 1
  %24 = zext i8 %23 to i32
  %25 = sext i32 %24 to i64
  %26 = getelementptr inbounds i8, ptr %19, i64 %25
  %27 = getelementptr inbounds i8, ptr %26, i64 4
  %28 = call zeroext i16 @pci_get_word(ptr noundef %27)
  store i16 %28, ptr %4, align 2
  %29 = load i16, ptr %4, align 2
  %30 = zext i16 %29 to i32
  %31 = and i32 %30, 8
  %32 = icmp ne i32 %31, 0
  br i1 %32, label %33, label %38

33:                                               ; preds = %16
  %34 = load i16, ptr %4, align 2
  %35 = zext i16 %34 to i32
  %36 = and i32 %35, 3
  %37 = icmp eq i32 %36, 3
  br label %38

38:                                               ; preds = %33, %16
  %39 = phi i1 [ false, %16 ], [ %37, %33 ]
  store i1 %39, ptr %2, align 1
  store i32 1, ptr %5, align 4
  br label %40

40:                                               ; preds = %38, %15
  call void @llvm.lifetime.end.p0(i64 2, ptr %4) #13
  %41 = load i1, ptr %2, align 1
  ret i1 %41
}

; Function Attrs: inlinehint nounwind sspstrong uwtable
define internal ptr @DEVICE(ptr noundef %0) #4 {
  %2 = alloca ptr, align 8
  store ptr %0, ptr %2, align 8
  %3 = load ptr, ptr %2, align 8
  %4 = call ptr @object_dynamic_cast_assert(ptr noundef %3, ptr noundef @.str.10, ptr noundef @.str.11, i32 noundef 77, ptr noundef @__func__.DEVICE)
  ret ptr %4
}

; Function Attrs: inlinehint nounwind sspstrong uwtable
define internal ptr @PCI_DEVICE(ptr noundef %0) #4 {
  %2 = alloca ptr, align 8
  store ptr %0, ptr %2, align 8
  %3 = load ptr, ptr %2, align 8
  %4 = call ptr @object_dynamic_cast_assert(ptr noundef %3, ptr noundef @.str.70, ptr noundef @.str.72, i32 noundef 11, ptr noundef @__func__.PCI_DEVICE)
  ret ptr %4
}

; Function Attrs: nounwind sspstrong uwtable
define internal void @virtio_pci_bus_reset_hold(ptr noundef %0, i32 noundef %1) #0 {
  %3 = alloca ptr, align 8
  %4 = alloca i32, align 4
  %5 = alloca ptr, align 8
  %6 = alloca ptr, align 8
  %7 = alloca i32, align 4
  %8 = alloca ptr, align 8
  store ptr %0, ptr %3, align 8
  store i32 %1, ptr %4, align 4
  call void @llvm.lifetime.start.p0(i64 8, ptr %5) #13
  %9 = load ptr, ptr %3, align 8
  %10 = call ptr @PCI_DEVICE(ptr noundef %9)
  store ptr %10, ptr %5, align 8
  call void @llvm.lifetime.start.p0(i64 8, ptr %6) #13
  %11 = load ptr, ptr %3, align 8
  %12 = call ptr @DEVICE(ptr noundef %11)
  store ptr %12, ptr %6, align 8
  %13 = load ptr, ptr %5, align 8
  %14 = call zeroext i1 @virtio_pci_no_soft_reset(ptr noundef %13)
  br i1 %14, label %15, label %16

15:                                               ; preds = %2
  store i32 1, ptr %7, align 4
  br label %46

16:                                               ; preds = %2
  %17 = load ptr, ptr %6, align 8
  call void @virtio_pci_reset(ptr noundef %17)
  %18 = load ptr, ptr %5, align 8
  %19 = call i32 @pci_is_express(ptr noundef %18)
  %20 = icmp ne i32 %19, 0
  br i1 %20, label %21, label %45

21:                                               ; preds = %16
  call void @llvm.lifetime.start.p0(i64 8, ptr %8) #13
  %22 = load ptr, ptr %5, align 8
  %23 = call ptr @VIRTIO_PCI(ptr noundef %22)
  store ptr %23, ptr %8, align 8
  %24 = load ptr, ptr %5, align 8
  call void @pcie_cap_deverr_reset(ptr noundef %24)
  %25 = load ptr, ptr %5, align 8
  call void @pcie_cap_lnkctl_reset(ptr noundef %25)
  %26 = load ptr, ptr %8, align 8
  %27 = getelementptr inbounds nuw %struct.VirtIOPCIProxy, ptr %26, i32 0, i32 12
  %28 = load i32, ptr %27, align 4
  %29 = and i32 %28, 512
  %30 = icmp ne i32 %29, 0
  br i1 %30, label %31, label %44

31:                                               ; preds = %21
  %32 = load ptr, ptr %5, align 8
  %33 = getelementptr inbounds nuw %struct.PCIDevice, ptr %32, i32 0, i32 3
  %34 = load ptr, ptr %33, align 16
  %35 = load ptr, ptr %5, align 8
  %36 = getelementptr inbounds nuw %struct.PCIDevice, ptr %35, i32 0, i32 36
  %37 = getelementptr inbounds nuw %struct.PCIExpressDevice, ptr %36, i32 0, i32 1
  %38 = load i8, ptr %37, align 1
  %39 = zext i8 %38 to i32
  %40 = sext i32 %39 to i64
  %41 = getelementptr inbounds i8, ptr %34, i64 %40
  %42 = getelementptr inbounds i8, ptr %41, i64 4
  %43 = call zeroext i16 @pci_word_test_and_clear_mask(ptr noundef %42, i16 noundef zeroext 3)
  br label %44

44:                                               ; preds = %31, %21
  call void @llvm.lifetime.end.p0(i64 8, ptr %8) #13
  br label %45

45:                                               ; preds = %44, %16
  store i32 0, ptr %7, align 4
  br label %46

46:                                               ; preds = %45, %15
  call void @llvm.lifetime.end.p0(i64 8, ptr %6) #13
  call void @llvm.lifetime.end.p0(i64 8, ptr %5) #13
  %47 = load i32, ptr %7, align 4
  switch i32 %47, label %49 [
    i32 0, label %48
    i32 1, label %48
  ]

48:                                               ; preds = %46, %46
  ret void

49:                                               ; preds = %46
  unreachable
}