; Function Attrs: nounwind sspstrong uwtable
define internal void @virtio_pci_bus_reset_hold(ptr noundef %0, i32 %1) #0 {
  %3 = tail call ptr @object_dynamic_cast_assert(ptr noundef %0, ptr noundef nonnull @.str.70, ptr noundef nonnull @.str.72, i32 noundef 11, ptr noundef nonnull @__func__.PCI_DEVICE) #15
  %4 = tail call ptr @object_dynamic_cast_assert(ptr noundef %0, ptr noundef nonnull @.str.10, ptr noundef nonnull @.str.11, i32 noundef 77, ptr noundef nonnull @__func__.DEVICE) #15
  %5 = getelementptr i8, ptr %3, i64 1324
  %.val.i = load i32, ptr %5, align 4
  %6 = and i32 %.val.i, 4
  %.not.i = icmp eq i32 %6, 0
  br i1 %.not.i, label %virtio_pci_no_soft_reset.exit.thread, label %7

7:                                                ; preds = %2
  %8 = getelementptr inbounds nuw i8, ptr %3, i64 2233
  %9 = load i8, ptr %8, align 1
  %.not7.i = icmp eq i8 %9, 0
  br i1 %.not7.i, label %virtio_pci_no_soft_reset.exit.thread, label %virtio_pci_no_soft_reset.exit

virtio_pci_no_soft_reset.exit:                    ; preds = %7
  %10 = getelementptr inbounds nuw i8, ptr %3, i64 160
  %11 = load ptr, ptr %10, align 16
  %12 = zext i8 %9 to i64
  %13 = getelementptr inbounds nuw i8, ptr %11, i64 %12
  %14 = getelementptr inbounds nuw i8, ptr %13, i64 4
  %.val8.i = load i16, ptr %14, align 1
  %15 = and i16 %.val8.i, 11
  %16 = icmp eq i16 %15, 11
  br i1 %16, label %36, label %virtio_pci_no_soft_reset.exit.thread

virtio_pci_no_soft_reset.exit.thread:             ; preds = %2, %7, %virtio_pci_no_soft_reset.exit
  %17 = tail call ptr @object_dynamic_cast_assert(ptr noundef %4, ptr noundef nonnull @.str, ptr noundef nonnull @.str.15, i32 noundef 107, ptr noundef nonnull @__func__.VIRTIO_PCI) #15
  %18 = getelementptr inbounds nuw i8, ptr %17, i64 34080
  %19 = tail call ptr @object_dynamic_cast_assert(ptr noundef nonnull %18, ptr noundef nonnull @__const.virtio_pci_bus_new.virtio_bus_name, ptr noundef nonnull @.str.20, i32 noundef 36, ptr noundef nonnull @__func__.VIRTIO_BUS) #15
  tail call void @virtio_bus_reset(ptr noundef %19) #15
  tail call void @msix_unuse_all_vectors(ptr noundef %17) #15
  %20 = getelementptr inbounds nuw i8, ptr %17, i64 5388
  tail call void @llvm.memset.p0.i64(ptr noundef nonnull align 4 dereferenceable(28672) %20, i8 0, i64 28672, i1 false)
  %.val = load i32, ptr %5, align 4
  %21 = and i32 %.val, 4
  %.not = icmp eq i32 %21, 0
  br i1 %.not, label %36, label %22

22:                                               ; preds = %virtio_pci_no_soft_reset.exit.thread
  %23 = tail call ptr @object_dynamic_cast_assert(ptr noundef nonnull %3, ptr noundef nonnull @.str, ptr noundef nonnull @.str.15, i32 noundef 107, ptr noundef nonnull @__func__.VIRTIO_PCI) #15
  tail call void @pcie_cap_deverr_reset(ptr noundef nonnull %3) #15
  tail call void @pcie_cap_lnkctl_reset(ptr noundef nonnull %3) #15
  %24 = getelementptr inbounds nuw i8, ptr %23, i64 5348
  %25 = load i32, ptr %24, align 4
  %26 = and i32 %25, 512
  %.not11 = icmp eq i32 %26, 0
  br i1 %.not11, label %36, label %27

27:                                               ; preds = %22
  %28 = getelementptr inbounds nuw i8, ptr %3, i64 160
  %29 = load ptr, ptr %28, align 16
  %30 = getelementptr inbounds nuw i8, ptr %3, i64 2233
  %31 = load i8, ptr %30, align 1
  %32 = zext i8 %31 to i64
  %33 = getelementptr inbounds nuw i8, ptr %29, i64 %32
  %34 = getelementptr inbounds nuw i8, ptr %33, i64 4
  %.val.i12 = load i16, ptr %34, align 1
  %35 = and i16 %.val.i12, -4
  store i16 %35, ptr %34, align 1
  br label %36

36:                                               ; preds = %virtio_pci_no_soft_reset.exit.thread, %27, %22, %virtio_pci_no_soft_reset.exit
  ret void
}